target datalayout = "e-m:e-p270:32:32-p271:32:32-p272:64:64-i64:64-i128:128-f80:128-n8:16:32:64-S128"
target triple = "x86_64-pc-linux-gnu"

%struct.server_request = type { ptr, ptr, i16, ptr, ptr, %struct.sockaddr_storage, i32, i16, i32, i32, i32, ptr, ptr, ptr, ptr, i64, %struct.evdns_server_request }
%struct.sockaddr_storage = type { i16, [118 x i8], i64 }
%struct.evdns_server_request = type { i32, i32, ptr }

; Function Attrs: nounwind uwtable
define i32 @evdns_server_request_get_requesting_addr(ptr noundef %0, ptr noundef %1, i32 noundef %2) #0 {
  %4 = alloca i32, align 4
  %5 = alloca ptr, align 8
  %6 = alloca ptr, align 8
  %7 = alloca i32, align 4
  %8 = alloca ptr, align 8
  %9 = alloca i32, align 4
  store ptr %0, ptr %5, align 8
  store ptr %1, ptr %6, align 8
  store i32 %2, ptr %7, align 4
  call void @llvm.lifetime.start.p0(i64 8, ptr %8) #10
  %10 = load ptr, ptr %5, align 8
  %11 = getelementptr inbounds i8, ptr %10, i64 -232
  store ptr %11, ptr %8, align 8
  %12 = load i32, ptr %7, align 4
  %13 = load ptr, ptr %8, align 8
  %14 = getelementptr inbounds nuw %struct.server_request, ptr %13, i32 0, i32 6
  %15 = load i32, ptr %14, align 8
  %16 = icmp slt i32 %12, %15
  br i1 %16, label %17, label %18

17:                                               ; preds = %3
  store i32 -1, ptr %4, align 4
  store i32 1, ptr %9, align 4
  br label %29

18:                                               ; preds = %3
  %19 = load ptr, ptr %6, align 8
  %20 = load ptr, ptr %8, align 8
  %21 = getelementptr inbounds nuw %struct.server_request, ptr %20, i32 0, i32 5
  %22 = load ptr, ptr %8, align 8
  %23 = getelementptr inbounds nuw %struct.server_request, ptr %22, i32 0, i32 6
  %24 = load i32, ptr %23, align 8
  %25 = zext i32 %24 to i64
  call void @llvm.memcpy.p0.p0.i64(ptr align 2 %19, ptr align 8 %21, i64 %25, i1 false)
  %26 = load ptr, ptr %8, align 8
  %27 = getelementptr inbounds nuw %struct.server_request, ptr %26, i32 0, i32 6
  %28 = load i32, ptr %27, align 8
  store i32 %28, ptr %4, align 4
  store i32 1, ptr %9, align 4
  br label %29

29:                                               ; preds = %18, %17
  call void @llvm.lifetime.end.p0(i64 8, ptr %8) #10
  %30 = load i32, ptr %4, align 4
  ret i32 %30
}