; Function Attrs: mustprogress nofree norecurse nosync nounwind willreturn memory(argmem: readwrite) uwtable
define i32 @evdns_server_request_get_requesting_addr(ptr noundef readonly captures(none) %0, ptr noundef writeonly captures(none) %1, i32 noundef %2) local_unnamed_addr #7 {
  %4 = getelementptr inbounds i8, ptr %0, i64 -64
  %5 = load i32, ptr %4, align 8
  %6 = icmp slt i32 %2, %5
  br i1 %6, label %11, label %7

7:                                                ; preds = %3
  %8 = getelementptr inbounds i8, ptr %0, i64 -192
  %9 = zext i32 %5 to i64
  tail call void @llvm.memcpy.p0.p0.i64(ptr align 2 %1, ptr nonnull align 8 %8, i64 %9, i1 false)
  %10 = load i32, ptr %4, align 8
  br label %11

11:                                               ; preds = %3, %7
  %.0 = phi i32 [ %10, %7 ], [ -1, %3 ]
  ret i32 %.0
}